target datalayout = "e-m:e-p270:32:32-p271:32:32-p272:64:64-i64:64-i128:128-f80:128-n8:16:32:64-S128"
target triple = "x86_64-pc-linux-gnu"

@total_size = internal global i64 0, align 8
@current_size = internal global i64 0, align 8
@last_progress_report = internal global i64 0, align 8
@stderr = external global ptr, align 8
@.str.89 = private unnamed_addr constant [29 x i8] c"%lld/%lld MB (%d%%) computed\00", align 1

; Function Attrs: nounwind uwtable
define internal void @progress_report(i1 noundef zeroext %0) #0 {
  %2 = alloca i8, align 1
  %3 = alloca i32, align 4
  %4 = alloca i64, align 8
  %5 = alloca i32, align 4
  %6 = zext i1 %0 to i8
  store i8 %6, ptr %2, align 1
  call void @llvm.lifetime.start.p0(i64 4, ptr %3) #9
  call void @llvm.lifetime.start.p0(i64 8, ptr %4) #9
  %7 = call i64 @time(ptr noundef null) #9
  store i64 %7, ptr %4, align 8
  %8 = load i64, ptr %4, align 8
  %9 = load i64, ptr @last_progress_report, align 8
  %10 = icmp eq i64 %8, %9
  br i1 %10, label %11, label %15

11:                                               ; preds = %1
  %12 = load i8, ptr %2, align 1, !range !11, !noundef !12
  %13 = trunc i8 %12 to i1
  br i1 %13, label %15, label %14

14:                                               ; preds = %11
  store i32 1, ptr %5, align 4
  br label %53

15:                                               ; preds = %11, %1
  %16 = load i64, ptr %4, align 8
  store i64 %16, ptr @last_progress_report, align 8
  %17 = load i64, ptr @current_size, align 8
  %18 = load i64, ptr @total_size, align 8
  %19 = icmp sgt i64 %17, %18
  br i1 %19, label %20, label %22

20:                                               ; preds = %15
  %21 = load i64, ptr @current_size, align 8
  store i64 %21, ptr @total_size, align 8
  br label %22

22:                                               ; preds = %20, %15
  %23 = load i64, ptr @total_size, align 8
  %24 = icmp ne i64 %23, 0
  br i1 %24, label %25, label %31

25:                                               ; preds = %22
  %26 = load i64, ptr @current_size, align 8
  %27 = mul i64 %26, 100
  %28 = load i64, ptr @total_size, align 8
  %29 = sdiv i64 %27, %28
  %30 = trunc i64 %29 to i32
  br label %32

31:                                               ; preds = %22
  br label %32

32:                                               ; preds = %31, %25
  %33 = phi i32 [ %30, %25 ], [ 0, %31 ]
  store i32 %33, ptr %3, align 4
  %34 = load ptr, ptr @stderr, align 8
  %35 = load i64, ptr @current_size, align 8
  %36 = sdiv i64 %35, 1048576
  %37 = load i64, ptr @total_size, align 8
  %38 = sdiv i64 %37, 1048576
  %39 = load i32, ptr %3, align 4
  %40 = call i32 (ptr, ptr, ...) @pg_fprintf(ptr noundef %34, ptr noundef @.str.89, i64 noundef %36, i64 noundef %38, i32 noundef %39)
  %41 = load i8, ptr %2, align 1, !range !11, !noundef !12
  %42 = trunc i8 %41 to i1
  br i1 %42, label %48, label %43

43:                                               ; preds = %32
  %44 = load ptr, ptr @stderr, align 8
  %45 = call i32 @fileno(ptr noundef %44) #9
  %46 = call i32 @isatty(i32 noundef %45) #9
  %47 = icmp ne i32 %46, 0
  br label %48

48:                                               ; preds = %43, %32
  %49 = phi i1 [ false, %32 ], [ %47, %43 ]
  %50 = select i1 %49, i32 13, i32 10
  %51 = load ptr, ptr @stderr, align 8
  %52 = call i32 @fputc(i32 noundef %50, ptr noundef %51)
  store i32 0, ptr %5, align 4
  br label %53

53:                                               ; preds = %48, %14
  call void @llvm.lifetime.end.p0(i64 8, ptr %4) #9
  call void @llvm.lifetime.end.p0(i64 4, ptr %3) #9
  %54 = load i32, ptr %5, align 4
  switch i32 %54, label %56 [
    i32 0, label %55
    i32 1, label %55
  ]

55:                                               ; preds = %53, %53
  ret void

56:                                               ; preds = %53
  unreachable
}