; Function Attrs: nounwind uwtable
define internal fastcc void @progress_report(i1 noundef zeroext %0) unnamed_addr #2 {
  %2 = tail call i64 @time(ptr noundef null) #12
  %3 = load i64, ptr @last_progress_report, align 8
  %4 = icmp ne i64 %2, %3
  %brmerge = or i1 %0, %4
  br i1 %brmerge, label %5, label %31

5:                                                ; preds = %1
  store i64 %2, ptr @last_progress_report, align 8
  %6 = load i64, ptr @current_size, align 8
  %7 = load i64, ptr @total_size, align 8
  %8 = icmp sgt i64 %6, %7
  br i1 %8, label %9, label %10

9:                                                ; preds = %5
  store i64 %6, ptr @total_size, align 8
  br label %10

10:                                               ; preds = %9, %5
  %11 = phi i64 [ %6, %9 ], [ %7, %5 ]
  %.not = icmp eq i64 %11, 0
  br i1 %.not, label %16, label %12

12:                                               ; preds = %10
  %13 = mul i64 %6, 100
  %14 = sdiv i64 %13, %11
  %15 = trunc i64 %14 to i32
  br label %16

16:                                               ; preds = %10, %12
  %17 = phi i32 [ %15, %12 ], [ 0, %10 ]
  %18 = load ptr, ptr @stderr, align 8
  %19 = sdiv i64 %6, 1048576
  %20 = sdiv i64 %11, 1048576
  %21 = tail call i32 (ptr, ptr, ...) @pg_fprintf(ptr noundef %18, ptr noundef nonnull @.str.89, i64 noundef %19, i64 noundef %20, i32 noundef %17) #12
  br i1 %0, label %27, label %22

22:                                               ; preds = %16
  %23 = load ptr, ptr @stderr, align 8
  %24 = tail call i32 @fileno(ptr noundef %23) #12
  %25 = tail call i32 @isatty(i32 noundef %24) #12
  %.not6 = icmp eq i32 %25, 0
  %26 = select i1 %.not6, i32 10, i32 13
  br label %27

27:                                               ; preds = %22, %16
  %28 = phi i32 [ 10, %16 ], [ %26, %22 ]
  %29 = load ptr, ptr @stderr, align 8
  %30 = tail call i32 @fputc(i32 noundef %28, ptr noundef %29)
  br label %31

31:                                               ; preds = %1, %27
  ret void
}